; Function Attrs: uwtable
define void @_ZN7mitsuba17ThreadEnvironmentC2Ev(ptr nocapture noundef nonnull align 8 dereferenceable(16) %0) unnamed_addr #16 align 2 personality ptr @__gxx_personality_v0 {
  %2 = getelementptr inbounds i8, ptr %0, i64 8
  tail call void @llvm.memset.p0.i64(ptr noundef nonnull align 8 dereferenceable(16) %0, i8 0, i64 16, i1 false)
  %.b.i.i.i = load i1, ptr @__tls_guard, align 1
  br i1 %.b.i.i.i, label %4, label %3, !prof !4

3:                                                ; preds = %1
  store i1 true, ptr @__tls_guard, align 1
  invoke fastcc void @__cxx_global_var_init.1()
          to label %._crit_edge unwind label %33

._crit_edge:                                      ; preds = %3
  %.pre = load ptr, ptr %0, align 8
  br label %4

4:                                                ; preds = %._crit_edge, %1
  %5 = phi ptr [ %.pre, %._crit_edge ], [ null, %1 ]
  %6 = tail call align 8 ptr @llvm.threadlocal.address.p0(ptr align 8 @_ZN7mitsubaL4selfE)
  %7 = load ptr, ptr %6, align 8
  %8 = getelementptr inbounds i8, ptr %7, i64 16
  %9 = load ptr, ptr %8, align 8
  %10 = getelementptr inbounds i8, ptr %9, i64 56
  %11 = load ptr, ptr %10, align 8
  %.not.i = icmp eq ptr %5, %11
  br i1 %.not.i, label %20, label %12

12:                                               ; preds = %4
  %.not6.i = icmp eq ptr %11, null
  br i1 %.not6.i, label %16, label %13

13:                                               ; preds = %12
  %14 = getelementptr inbounds i8, ptr %11, i64 8
  %15 = atomicrmw add ptr %14, i32 1 seq_cst, align 4
  %.pr.i = load ptr, ptr %0, align 8
  br label %16

16:                                               ; preds = %13, %12
  %17 = phi ptr [ %.pr.i, %13 ], [ %5, %12 ]
  %.not7.i = icmp eq ptr %17, null
  br i1 %.not7.i, label %19, label %18

18:                                               ; preds = %16
  tail call void @_ZNK7mitsuba6Object7dec_refEb(ptr noundef nonnull align 8 dereferenceable(12) %17, i1 noundef zeroext true) #3
  br label %19

19:                                               ; preds = %18, %16
  store ptr %11, ptr %0, align 8
  %.pre10 = load ptr, ptr %8, align 8
  br label %20

20:                                               ; preds = %19, %4
  %21 = phi ptr [ %.pre10, %19 ], [ %9, %4 ]
  %22 = getelementptr inbounds i8, ptr %21, i64 72
  %23 = load ptr, ptr %22, align 8
  %24 = load ptr, ptr %2, align 8
  %.not.i4 = icmp eq ptr %24, %23
  br i1 %.not.i4, label %_ZN7mitsuba3refINS_12FileResolverEEaSIS1_EERS2_PS1_.exit, label %25

25:                                               ; preds = %20
  %.not6.i5 = icmp eq ptr %23, null
  br i1 %.not6.i5, label %29, label %26

26:                                               ; preds = %25
  %27 = getelementptr inbounds i8, ptr %23, i64 8
  %28 = atomicrmw add ptr %27, i32 1 seq_cst, align 4
  %.pr.i6 = load ptr, ptr %2, align 8
  br label %29

29:                                               ; preds = %26, %25
  %30 = phi ptr [ %.pr.i6, %26 ], [ %24, %25 ]
  %.not7.i7 = icmp eq ptr %30, null
  br i1 %.not7.i7, label %32, label %31

31:                                               ; preds = %29
  tail call void @_ZNK7mitsuba6Object7dec_refEb(ptr noundef nonnull align 8 dereferenceable(12) %30, i1 noundef zeroext true) #3
  br label %32

32:                                               ; preds = %31, %29
  store ptr %23, ptr %2, align 8
  br label %_ZN7mitsuba3refINS_12FileResolverEEaSIS1_EERS2_PS1_.exit

_ZN7mitsuba3refINS_12FileResolverEEaSIS1_EERS2_PS1_.exit: ; preds = %20, %32
  ret void

33:                                               ; preds = %3
  %34 = landingpad { ptr, i32 }
          cleanup
  %35 = load ptr, ptr %2, align 8
  %.not.i8 = icmp eq ptr %35, null
  br i1 %.not.i8, label %_ZN7mitsuba3refINS_12FileResolverEED2Ev.exit, label %36

36:                                               ; preds = %33
  tail call void @_ZNK7mitsuba6Object7dec_refEb(ptr noundef nonnull align 8 dereferenceable(12) %35, i1 noundef zeroext true) #3
  br label %_ZN7mitsuba3refINS_12FileResolverEED2Ev.exit

_ZN7mitsuba3refINS_12FileResolverEED2Ev.exit:     ; preds = %33, %36
  %37 = load ptr, ptr %0, align 8
  %.not.i9 = icmp eq ptr %37, null
  br i1 %.not.i9, label %_ZN7mitsuba3refINS_6LoggerEED2Ev.exit, label %38

38:                                               ; preds = %_ZN7mitsuba3refINS_12FileResolverEED2Ev.exit
  tail call void @_ZNK7mitsuba6Object7dec_refEb(ptr noundef nonnull align 8 dereferenceable(12) %37, i1 noundef zeroext true) #3
  br label %_ZN7mitsuba3refINS_6LoggerEED2Ev.exit

_ZN7mitsuba3refINS_6LoggerEED2Ev.exit:            ; preds = %_ZN7mitsuba3refINS_12FileResolverEED2Ev.exit, %38
  resume { ptr, i32 } %34
}